less:000000000000038c r __abi_tag
less:000000000003e698 B above_mem
less:000000000003e62c B any_display
less:0000000000024e60 t atexit
less:0000000000042c40 B at_prompt
less:0000000000042afc B autobuf
less:000000000003e6d8 B auto_wrap
less:0000000000042b0c B back_scroll
less:000000000003e694 B below_mem
less:0000000000039e00 D binattr
less:000000000003e69c B bl_e_width
less:000000000003e6a0 B bl_s_width
less:000000000003e6b4 B bo_e_width
less:000000000003e6b8 B bo_s_width
less:0000000000042b24 B bs_mode
less:000000000003e5b4 B __bss_start
less:0000000000042af8 B bufspace
less:                 U calloc@GLIBC_2.2.5
less:000000000003e690 B can_goto_line
less:0000000000042b04 B caseless
less:                 U cfgetospeed@GLIBC_2.2.5
less:000000000003a120 D charsets
less:0000000000042ae4 B chopline
less:000000000003e68c B clear_bg
less:                 U close@GLIBC_2.2.5
less:000000000003a318 D closequote
less:000000000003e5e1 b completed.0
less:0000000000039e50 D compose_table
less:                 U creat@GLIBC_2.2.5
less:0000000000039e60 D cs_aliases
less:0000000000042af4 B ctldisp
less:000000000003fec0 B curr_dev
less:000000000003e648 B curr_ifile
less:000000000003feb8 B curr_ino
less:                 U __cxa_atexit@GLIBC_2.2.5
less:                 w __cxa_finalize@GLIBC_2.2.5
less:0000000000024e20 T __cyg_profile_func_enter
less:0000000000024e40 T __cyg_profile_func_exit
less:0000000000038000 D __data_start
less:0000000000038000 W data_start
less:0000000000006d20 t deregister_tm_clones
less:0000000000006d90 t __do_global_dtors_aux
less:0000000000037b28 d __do_global_dtors_aux_fini_array_entry
less:000000000003e614 B dohelp
less:0000000000038008 D __dso_handle
less:                 U dup@GLIBC_2.2.5
less:0000000000038028 V DW.ref.__gxx_personality_v0
less:0000000000037b30 d _DYNAMIC
less:000000000003e5b4 D _edata
less:000000000003e600 B editor
less:000000000003e5f8 B editproto
less:0000000000043958 B _end
less:0000000000038018 D end_attnpos
less:000000000003e580 D eqproto
less:000000000003e6cc B erase2_char
less:000000000003e6d0 B erase_char
less:0000000000042c4c B errmsgs
less:                 U __errno_location@GLIBC_2.2.5
less:000000000003e658 B every_first_cmd
less:                 U exit@GLIBC_2.2.5
less:                 U fchmod@GLIBC_2.2.5
less:                 U fclose@GLIBC_2.2.5
less:000000000003fec8 B fd0
less:                 U fgetc@GLIBC_2.2.5
less:                 U fgets@GLIBC_2.2.5
less:                 U fileno@GLIBC_2.2.5
less:0000000000042c44 B final_attr
less:0000000000024e74 T _fini
less:0000000000039e20 D fmt_table
less:0000000000042ac0 B follow_mode
less:                 U fopen@GLIBC_2.2.5
less:000000000003e610 B force_logfile
less:0000000000042af0 B force_open
less:000000000003fed8 B forw_prompt
less:0000000000042b08 B forw_scroll
less:                 U __fprintf_chk@GLIBC_2.3.4
less:0000000000006dd0 t frame_dummy
less:0000000000037b20 d __frame_dummy_init_array_entry
less:00000000000334b4 r __FRAME_END__
less:                 U free@GLIBC_2.2.5
less:                 U fstat@GLIBC_2.33
less:                 U fsync@GLIBC_2.2.5
less:                 U getc@GLIBC_2.2.5
less:                 U getenv@GLIBC_2.2.5
less:                 U getpid@GLIBC_2.2.5
less:0000000000037d50 d _GLOBAL_OFFSET_TABLE_
less:                 w __gmon_start__
less:0000000000027de4 r __GNU_EH_FRAME_HDR
less:                 U __gxx_personality_v0@CXXABI_1.3
less:000000000003a760 D helpdata
less:000000000003ff00 B highest_hilite
less:0000000000042a9c B hilite_search
less:0000000000042b30 B how_search
less:000000000003e578 D hproto
less:0000000000040120 B hshift
less:000000000003e6d4 B ignaw
less:000000000003f428 B ignore_eoi
less:0000000000004000 T _init
less:000000000003e630 B initial_scrpos
less:                 U ioctl@GLIBC_2.2.5
less:0000000000025000 R _IO_stdin_used
less:                 U isatty@GLIBC_2.2.5
less:                 U iscntrl@GLIBC_2.2.5
less:                 U isprint@GLIBC_2.2.5
less:000000000003e650 B is_tty
less:                 U iswupper@GLIBC_2.2.5
less:                 w _ITM_deregisterTMCloneTable
less:                 w _ITM_registerTMCloneTable
less:0000000000042ae8 B jump_sline
less:000000000003d5c0 D jump_sline_fraction
less:000000000003e680 B kent
less:000000000003e6c8 B kill_char
less:                 U kill@GLIBC_2.2.5
less:0000000000042b20 B know_dumb
less:0000000000042a98 B less_is_more
less:                 U __libc_start_main@GLIBC_2.34
less:0000000000042b00 B linenums
less:0000000000038010 D logfile
less:                 U __longjmp_chk@GLIBC_2.11
less:                 U lseek@GLIBC_2.2.5
less:0000000000006980 T main
less:0000000000004a3f t main.cold
less:0000000000042160 B marks_modified
less:                 U memcpy@GLIBC_2.14
less:                 U memmove@GLIBC_2.2.5
less:                 U memset@GLIBC_2.2.5
less:000000000003e688 B missing_cap
less:000000000003a368 D ml_examine
less:000000000003a380 D mlist_examine
less:000000000003a3c0 D mlist_search
less:000000000003a340 D mlist_shell
less:000000000003a3a8 D ml_search
less:000000000003a320 D ml_shell
less:0000000000042aa8 B mousecap
less:000000000003e608 B namelogfile
less:0000000000042c48 B need_clr
less:000000000003e654 B new_file
less:                 U nl_langinfo@GLIBC_2.2.5
less:000000000003fedc B no_back_scroll
less:0000000000042aac B no_hist_dups
less:0000000000042ae0 B no_init
less:0000000000042adc B no_keypad
less:000000000003d5b4 D ntabstops
less:0000000000042abc B oldbot
less:000000000003e640 B old_ifile
less:000000000003e5f0 B one_screen
less:                 U open@GLIBC_2.2.5
less:000000000003a319 D openquote
less:0000000000042ab8 B opt_use_backslash
less:000000000003e5c8 B ospeed@NCURSES6_TINFO_5.0.19991023
less:                 U pclose@GLIBC_2.2.5
less:000000000003e5e0 B PC@NCURSES6_TINFO_5.0.19991023
less:0000000000042aa0 B perma_marks
less:0000000000042a40 B plusoption
less:                 U popen@GLIBC_2.2.5
less:000000000003e620 B progname
less:0000000000043080 B prproto
less:0000000000042b28 B pr_type
less:                 U putc@GLIBC_2.2.5
less:0000000000042b34 B quiet
less:0000000000042b1c B quit_at_eof
less:0000000000042b18 B quit_if_one_screen
less:0000000000042ac4 B quit_on_intr
less:000000000003e618 B quitting
less:                 U read@GLIBC_2.2.5
less:0000000000042b40 B reading
less:                 U realpath@GLIBC_2.3
less:                 U regcomp@GLIBC_2.2.5
less:                 U regexec@GLIBC_2.3.4
less:                 U regfree@GLIBC_2.2.5
less:0000000000006d50 t register_tm_clones
less:                 U rename@GLIBC_2.2.5
less:0000000000042ab0 B rscroll_attr
less:0000000000042ab4 B rscroll_char
less:000000000003a724 D same_pos_bell
less:000000000003e6bc B sc_height
less:000000000003fee4 B screen_trashed
less:000000000003e6c0 B sc_width
less:                 U _setjmp@GLIBC_2.2.5
less:                 U setlocale@GLIBC_2.2.5
less:0000000000042ad0 B shift_count
less:000000000003d5b8 D shift_count_fraction
less:0000000000042ad4 B show_attn
less:                 U sigemptyset@GLIBC_2.2.5
less:                 U signal@GLIBC_2.2.5
less:                 U sigprocmask@GLIBC_2.2.5
less:000000000004393c B sigs
less:000000000003a740 D size_helpdata
less:0000000000040124 B size_linebuf
less:                 U sleep@GLIBC_2.2.5
less:                 U __snprintf_chk@GLIBC_2.3.4
less:000000000003e6a4 B so_e_width
less:000000000003e6a8 B so_s_width
less:                 U __sprintf_chk@GLIBC_2.3.4
less:0000000000042b14 B squeeze
less:000000000003fee0 B squished
less:                 U __stack_chk_fail@GLIBC_2.4
less:0000000000006cf0 T _start
less:0000000000038020 D start_attnpos
less:                 U stat@GLIBC_2.33
less:0000000000042acc B status_col
less:000000000003e5c0 B stdin@GLIBC_2.2.5
less:                 U stpcpy@GLIBC_2.2.5
less:                 U __strcat_chk@GLIBC_2.3.4
less:                 U strchr@GLIBC_2.2.5
less:                 U strcmp@GLIBC_2.2.5
less:                 U __strcpy_chk@GLIBC_2.3.4
less:                 U strcpy@GLIBC_2.2.5
less:                 U strerror@GLIBC_2.2.5
less:                 U strlen@GLIBC_2.2.5
less:                 U strncmp@GLIBC_2.2.5
less:                 U strncpy@GLIBC_2.2.5
less:                 U strstr@GLIBC_2.2.5
less:                 U strtol@GLIBC_2.2.5
less:0000000000042aec B swindow
less:                 U system@GLIBC_2.2.5
less:000000000003d5b0 D tabdefault
less:0000000000042b10 B tabstop
less:000000000003ff20 B tabstops
less:0000000000042a30 B tagoption
less:000000000003e5a0 D tags
less:                 U tcgetattr@GLIBC_2.2.5
less:                 U tcsetattr@GLIBC_2.2.5
less:                 U tgetent@NCURSES6_TINFO_5.0.19991023
less:                 U tgetflag@NCURSES6_TINFO_5.0.19991023
less:                 U tgetnum@NCURSES6_TINFO_5.0.19991023
less:                 U tgetstr@NCURSES6_TINFO_5.0.19991023
less:                 U tgoto@NCURSES6_TINFO_5.0.19991023
less:                 U time@GLIBC_2.2.5
less:000000000003e5b8 D __TMC_END__
less:0000000000042b2c B top_scroll
less:                 U towlower@GLIBC_2.2.5
less:                 U tputs@NCURSES6_TINFO_5.0.19991023
less:0000000000043950 B tty
less:0000000000042ad8 B twiddle
less:0000000000039e40 D ubin_table
less:000000000003e6ac B ul_e_width
less:000000000003e6b0 B ul_s_width
less:                 U _Unwind_Resume@GCC_3.0
less:0000000000042ac8 B use_lessopen
less:000000000003f440 B utf_mode
less:000000000003e5a8 D version
less:000000000003e6c4 B werase_char
less:0000000000042aa4 B wheel_lines
less:0000000000039e30 D wide_table
less:000000000003e570 D wproto
less:                 U write@GLIBC_2.2.5
less:000000000003e628 B wscroll
less:0000000000023070 T _Z10chg_hilitev
less:00000000000067b0 t _Z10chg_hilitev.cold
less:0000000000009410 T _Z10ch_set_eofv
less:0000000000021450 T _Z10clear_attnv
less:0000000000006603 t _Z10clear_attnv.cold
less:00000000000216f0 T _Z10clr_filterv
less:00000000000216b0 T _Z10clr_hilitev
less:000000000000e030 T _Z10cmd_acceptv
less:000000000000512b t _Z10cmd_acceptv.cold
less:000000000000be20 T _Z10cmd_putstrPKc
less:0000000000004e84 t _Z10cmd_putstrPKc.cold
less:0000000000011000 T _Z10cvt_lengthii
less:0000000000013800 T _Z10edit_firstv
less:0000000000005800 t _Z10edit_firstv.cold
less:0000000000012e40 T _Z10edit_ifilePv
less:000000000000570d t _Z10edit_ifilePv.cold
less:00000000000138b0 T _Z10edit_indexi
less:0000000000005822 t _Z10edit_indexi.cold
less:00000000000134b0 T _Z10edit_stdinv
less:0000000000005760 t _Z10edit_stdinv.cold
less:0000000000020de0 T _Z10eq_messagev
less:00000000000065af t _Z10eq_messagev.cold
less:000000000000bc30 T _Z10get_cmdbufv
less:000000000001ebd0 T _Z10get_returnv
less:00000000000062ff t _Z10get_returnv.cold
less:000000000001f970 T _Z10get_scrposP6scrposi
less:0000000000023bd0 T _Z10gettagtypev
less:0000000000006870 t _Z10gettagtypev.cold
less:0000000000024cf0 T _Z10gnu_ptracePcPv
less:00000000000160c0 T _Z10held_ifilePv
less:0000000000021080 T _Z10hlist_findP11hilite_treel
less:0000000000020fa0 T _Z10hlist_lastP11hilite_tree
less:0000000000021000 T _Z10hlist_nextP11hilite_node
less:0000000000021040 T _Z10hlist_prevP11hilite_node
less:0000000000016080 T _Z10hold_ifilePvi
less:00000000000088a0 T _Z10init_mousev
less:0000000000004c0c t _Z10init_mousev.cold
less:0000000000022450 T _Z10is_hilitedlliPi
less:000000000000bd60 T _Z10len_cmdbufv
less:0000000000004e6f t _Z10len_cmdbufv.cold
less:000000000001ea50 T _Z10linenumtoalPc
less:0000000000008b50 T _Z10lower_leftv
less:0000000000004c60 t _Z10lower_leftv.cold
less:0000000000008fc0 T _Z10match_braciiii
less:0000000000004cee t _Z10match_braciiii.cold
less:0000000000015df0 T _Z10next_ifilePv
less:000000000001ca90 T _Z10opt_promptP7loption
less:000000000001e4a0 T _Z10percentagell
less:0000000000015e50 T _Z10prev_ifilePv
less:00000000000183a0 T _Z10pshift_allv
less:0000000000005ce7 t _Z10pshift_allv.cold
less:000000000001ab90 T _Z10save_marksP8_IO_FILEPc
less:0000000000005f04 t _Z10save_marksP8_IO_FILEPc.cold
less:000000000000af50 T _Z11binary_charm
less:000000000000a5c0 T _Z11ch_back_getv
less:0000000000004e02 t _Z11ch_back_getv.cold
less:000000000000a300 T _Z11ch_beg_seekv
less:0000000000004dae t _Z11ch_beg_seekv.cold
less:00000000000070e0 T _Z11check_winchv
less:000000000000a470 T _Z11ch_end_seekv
less:0000000000004dd8 t _Z11ch_end_seekv.cold
less:000000000000a0d0 T _Z11ch_forw_getv
less:0000000000004d84 t _Z11ch_forw_getv.cold
less:00000000000094a0 T _Z11ch_getflagsv
less:0000000000019b10 T _Z11clr_linenumv
less:000000000000deb0 T _Z11cmd_addhistP5mlistPKci
less:0000000000005116 t _Z11cmd_addhistP5mlistPKci.cold
less:000000000000e6d0 T _Z11dispversionv
less:00000000000051ca t _Z11dispversionv.cold
less:0000000000011fe0 T _Z11ecmd_decodePcPS_
less:00000000000055d6 t _Z11ecmd_decodePcPS_.cold
less:000000000001f8e0 T _Z11empty_linesii
less:000000000000a3b0 T _Z11end_logfilev
less:0000000000004dc3 t _Z11end_logfilev.cold
less:0000000000011f80 T _Z11fcmd_decodePcPS_
less:00000000000055c1 t _Z11fcmd_decodePcPS_.cold
less:00000000000161c0 T _Z11get_altpipePv
less:000000000001cf10 T _Z11getfractionPPcS_Pi
less:00000000000061c3 t _Z11getfractionPPcS_Pi.cold
less:000000000001bd60 T _Z11get_swindowv
less:000000000001dd50 T _Z11init_optionv
less:000000000000624c t _Z11init_optionv.cold
less:000000000001fc90 T _Z11init_promptv
less:0000000000006410 t _Z11init_promptv.cold
less:00000000000222f0 T _Z11init_searchv
less:0000000000017de0 T _Z11is_ansi_endm
less:0000000000008cb0 T _Z11is_at_equivii
less:0000000000021790 T _Z11is_filteredl
less:0000000000006642 t _Z11is_filteredl.cold
less:0000000000024b70 T _Z11open_getchrv
less:0000000000006950 t _Z11open_getchrv.cold
less:000000000001c130 T _Z11opt_rscrolliPc
less:00000000000060d9 t _Z11opt_rscrolliPc.cold
less:000000000001e530 T _Z11percent_poslil
less:0000000000022b00 T _Z11prep_hilitelli
less:0000000000006787 t _Z11prep_hilitelli.cold
less:000000000001d250 T _Z11scan_optionPc
less:000000000000621f t _Z11scan_optionPc.cold
less:0000000000016180 T _Z11set_altpipePvS_
less:0000000000016dd0 T _Z11set_attnposl
less:0000000000005ba8 t _Z11set_attnposl.cold
less:0000000000014890 T _Z11shell_quotePc
less:000000000000599d t _Z11shell_quotePc.cold
less:00000000000225c0 T _Z11undo_searchv
less:000000000000675a t _Z11undo_searchv.cold
less:0000000000012b40 T _Z11use_logfilePc
less:00000000000056ce t _Z11use_logfilePc.cold
less:000000000001f790 T _Z12add_back_posl
less:000000000001f730 T _Z12add_forw_posl
less:00000000000231b0 T _Z12chg_caselessv
less:00000000000067da t _Z12chg_caselessv.cold
less:0000000000009170 T _Z12ch_ungetchari
less:0000000000004d03 t _Z12ch_ungetchari.cold
less:0000000000024b10 T _Z12close_getchrv
less:000000000000a710 T _Z12control_charm
less:0000000000008a10 T _Z12deinit_mousev
less:0000000000004c36 t _Z12deinit_mousev.cold
less:0000000000024aa0 T _Z12edit_tagfilev
less:000000000000693b t _Z12edit_tagfilev.cold
less:000000000001fab0 T _Z12empty_screenv
less:000000000001a090 T _Z12find_linenuml
less:0000000000005e71 t _Z12find_linenuml.cold
less:000000000001dec0 T _Z12findopt_namePPcS0_Pi
less:0000000000006261 t _Z12findopt_namePPcS0_Pi.cold
less:0000000000015ef0 T _Z12get_filenamePv
less:0000000000016390 T _Z12getoff_ifilePv
less:000000000000b6a0 T _Z12init_charsetv
less:0000000000004e5a t _Z12init_charsetv.cold
less:000000000000e120 T _Z12init_cmdhistv
less:0000000000005155 t _Z12init_cmdhistv.cold
less:0000000000023580 T _Z12init_signalsi
less:0000000000021930 T _Z12is_filteringv
less:0000000000006681 t _Z12is_filteringv.cold
less:000000000001cae0 T _Z12isoptpendingv
less:000000000000aed0 T _Z12is_ubin_charm
less:000000000000afc0 T _Z12is_wide_charm
less:00000000000174a0 T _Z12jump_percentil
less:0000000000005c3b t _Z12jump_percentil.cold
less:0000000000014d10 T _Z12open_altfilePcPiPPv
less:00000000000059f0 t _Z12open_altfilePcPiPPv.cold
less:000000000001c260 T _Z12opt_mousecapiPc
less:00000000000060ee t _Z12opt_mousecapiPc.cold
less:0000000000013940 T _Z12reedit_ifilePv
less:0000000000005837 t _Z12reedit_ifilePv.cold
less:000000000001b1d0 T _Z12restore_markPc
less:0000000000005f74 t _Z12restore_markPc.cold
less:000000000000e340 T _Z12save_cmdhistv
less:00000000000051a8 t _Z12save_cmdhistv.cold
less:0000000000015670 T _Z12squish_checkv
less:0000000000005ab9 t _Z12squish_checkv.cold
less:00000000000096b0 T _Z12sync_logfilev
less:0000000000004d2d t _Z12sync_logfilev.cold
less:0000000000012a80 T _Z12unsave_ifilePv
less:00000000000056a4 t _Z12unsave_ifilePv.cold
less:0000000000020e40 T _Z12wait_messagev
less:00000000000065c4 t _Z12wait_messagev.cold
less:00000000000125f0 T _Z13add_hometablePcS_i
less:0000000000005650 t _Z13add_hometablePcS_i.cold
less:0000000000017b90 T _Z13back_raw_linelPPcPi
less:0000000000005ca4 t _Z13back_raw_linelPPcPi.cold
less:0000000000012970 T _Z13back_textlistP8textlistPc
less:0000000000014bf0 T _Z13close_altfilePcS_
less:00000000000059db t _Z13close_altfilePcS_.cold
less:0000000000015420 T _Z13eof_displayedv
less:0000000000005a65 t _Z13eof_displayedv.cold
less:000000000001e3f0 T _Z13errno_messagePc
less:0000000000006296 t _Z13errno_messagePc.cold
less:0000000000017a80 T _Z13forw_raw_linelPPcPi
less:0000000000005c8f t _Z13forw_raw_linelPPcPi.cold
less:00000000000128e0 T _Z13forw_textlistP8textlistPc
less:0000000000016100 T _Z13get_filestatePv
less:0000000000012780 T _Z13init_textlistP8textlistPc
less:000000000000567a t _Z13init_textlistP8textlistPc.cold
less:0000000000017630 T _Z13is_ascii_charm
less:0000000000017390 T _Z13jump_line_locli
less:0000000000005c11 t _Z13jump_line_locli.cold
less:000000000001f540 T _Z13match_patternP17re_pattern_bufferPcS1_iPS1_S2_ii
less:00000000000063e6 t _Z13match_patternP17re_pattern_bufferPcS1_iPS1_S2_ii.cold
less:000000000001ca40 T _Z13opt_has_paramP7loption
less:0000000000016140 T _Z13set_filestatePvS_
less:0000000000013d80 T _Z13shell_coptionv
less:00000000000151d0 T _Z13shell_unquotePc
less:0000000000005a27 t _Z13shell_unquotePc.cold
less:000000000001d7f0 T _Z13toggle_optionP7loptioniPci
less:0000000000006237 t _Z13toggle_optionP7loptioniPci.cold
less:000000000001f490 T _Z13valid_patternPc
less:00000000000063d1 t _Z13valid_patternPc.cold
less:0000000000011b60 T _Z14add_ecmd_tablePci
less:000000000000556d t _Z14add_ecmd_tablePci.cold
less:0000000000011a20 T _Z14add_fcmd_tablePci
less:0000000000005543 t _Z14add_fcmd_tablePci.cold
less:0000000000009350 T _Z14ch_setbufspacei
less:0000000000015590 T _Z14get_one_screenv
less:0000000000005a8f t _Z14get_one_screenv.cold
less:0000000000017e60 T _Z14is_ansi_middlem
less:0000000000013db0 T _Z14last_componentPc
less:0000000000021370 T _Z14repaint_hilitei
less:00000000000065ee t _Z14repaint_hilitei.cold
less:0000000000018530 T _Z14set_status_coli
less:000000000001c320 T _Z15calc_jump_slinev
less:000000000000bc60 T _Z15cmd_lastpatternv
less:000000000001f370 T _Z15compile_patternPciPP17re_pattern_buffer
less:00000000000063a7 t _Z15compile_patternPciPP17re_pattern_buffer.cold
less:0000000000011050 T _Z15cvt_alloc_chposi
less:000000000000547f t _Z15cvt_alloc_chposi.cold
less:0000000000016200 T _Z15get_altfilenamePv
less:0000000000015520 T _Z15get_back_scrollv
less:0000000000013e20 T _Z15get_meta_escapev
less:00000000000058c1 t _Z15get_meta_escapev.cold
less:000000000001cb30 T _Z15get_quit_at_eofv
less:000000000001f120 T _Z15is_null_patternP17re_pattern_buffer
less:0000000000021810 T _Z15next_unfilteredl
less:0000000000006657 t _Z15next_unfilteredl.cold
less:000000000001c2c0 T _Z15opt_wheel_linesiPc
less:0000000000006103 t _Z15opt_wheel_linesiPc.cold
less:00000000000218a0 T _Z15prev_unfilteredl
less:000000000000666c t _Z15prev_unfilteredl.cold
less:0000000000012a10 T _Z15save_curr_ifilev
less:000000000000568f t _Z15save_curr_ifilev.cold
less:0000000000016240 T _Z15set_altfilenamePvPc
less:00000000000078c0 T _Z15special_key_stri
less:0000000000004abd t _Z15special_key_stri.cold
less:000000000001c550 T _Z16calc_shift_countv
less:000000000001ae20 T _Z16mark_check_ifilePv
less:0000000000005f1c t _Z16mark_check_ifilePv.cold
less:000000000001f250 T _Z16pattern_lib_namev
less:000000000000a910 T _Z16utf_skip_to_leadPPcS_
less:0000000000007110 T _Z17apply_at_specialsi
less:0000000000011660 T _Z17expand_cmd_tablesv
less:00000000000054da t _Z17expand_cmd_tablesv.cold
less:000000000000b010 T _Z17is_combining_charmm
less:000000000000ae50 T _Z17is_composing_charm
less:0000000000013ca0 T _Z17reopen_curr_ifilev
less:00000000000058ac t _Z17reopen_curr_ifilev.cold
less:000000000001fa60 T _Z17sindex_from_slinei
less:000000000001f430 T _Z17uncompile_patternPP17re_pattern_buffer
less:00000000000063bc t _Z17uncompile_patternPP17re_pattern_buffer.cold
less:000000000000a520 T _Z18ch_end_buffer_seekv
less:0000000000004ded t _Z18ch_end_buffer_seekv.cold
less:0000000000017420 T _Z18jump_forw_bufferedv
less:0000000000005c26 t _Z18jump_forw_bufferedv.cold
less:00000000000223a0 T _Z18set_filter_patternPci
less:0000000000006745 t _Z18set_filter_patternPci.cold
less:0000000000024b40 T _Z19default_wheel_linesv
less:000000000000a830 T _Z19is_utf8_well_formedPci
less:00000000000154b0 T _Z21entire_file_displayedv
less:0000000000005a7a t _Z21entire_file_displayedv.cold
less:000000000001cdd0 T _Z21opt_toggle_disallowedi
less:0000000000006199 t _Z21opt_toggle_disallowedi.cold
less:0000000000015a20 T _Z4backilii
less:0000000000005ae7 t _Z4backilii.cold
less:0000000000008c20 T _Z4bellv
less:0000000000004c8a t _Z4bellv.cold
less:0000000000013440 T _Z4editPc
less:000000000000574b t _Z4editPc.cold
less:00000000000156d0 T _Z4forwiliii
less:0000000000005ace t _Z4forwiliii.cold
less:0000000000008410 T _Z4homev
less:0000000000004b3a t _Z4homev.cold
less:0000000000008910 T _Z4initv
less:0000000000004c21 t _Z4initv.cold
less:0000000000006f10 T _Z4quiti
less:0000000000004a00 t _Z4quiti.cold
less:0000000000007020 T _Z4savePKc
less:0000000000004a2a t _Z4savePKc.cold
less:00000000000085a0 T _Z5clearv
less:0000000000004b8e t _Z5clearv.cold
less:000000000001eec0 T _Z5errorPcP4parg
less:0000000000006353 t _Z5errorPcP4parg.cold
less:000000000001e700 T _Z5flushv
less:00000000000062ab t _Z5flushv.cold
less:000000000000e9b0 T _Z5getccv
less:0000000000005221 t _Z5getccv.cold
less:0000000000017780 T _Z5glineiPi
less:000000000001e1c0 T _Z5ireadiPhj
less:000000000000627a t _Z5ireadiPhj.cold
less:0000000000014f70 T _Z5lglobPc
less:0000000000005a05 t _Z5lglobPc.cold
less:0000000000023b50 T _Z5ntagsv
less:000000000001bfa0 T _Z5opt_biPc
less:000000000000609a t _Z5opt_biPc.cold
less:000000000001c000 T _Z5opt_iiPc
less:00000000000060af t _Z5opt_iiPc.cold
less:000000000001c380 T _Z5opt_jiPc
less:0000000000006118 t _Z5opt_jiPc.cold
less:000000000001bdb0 T _Z5opt_kiPc
less:000000000000605b t _Z5opt_kiPc.cold
less:000000000001b740 T _Z5opt_oiPc
less:0000000000005fdd t _Z5opt_oiPc.cold
less:000000000001bf10 T _Z5opt_piPc
less:0000000000006085 t _Z5opt_piPc.cold
less:000000000001be50 T _Z5opt_tiPc
less:0000000000006070 t _Z5opt_tiPc.cold
less:000000000001c780 T _Z5opt_xiPc
less:0000000000006142 t _Z5opt_xiPc.cold
less:00000000000198f0 T _Z5pdoneiii
less:0000000000005df8 t _Z5pdoneiii.cold
less:000000000001cb90 T _Z5propti
less:000000000000615a t _Z5propti.cold
less:0000000000008820 T _Z5putbsv
less:0000000000004bf7 t _Z5putbsv.cold
less:000000000001f060 T _Z5queryPcP4parg
less:000000000000637d t _Z5queryPcP4parg.cold
less:0000000000008bc0 T _Z5vbellv
less:0000000000004c75 t _Z5vbellv.cold
less:0000000000023510 T _Z5winchi
less:0000000000006807 t _Z5winchi.cold
less:0000000000009ae0 T _Z6ch_getv
less:0000000000004d6c t _Z6ch_getv.cold
less:0000000000008a80 T _Z6deinitv
less:0000000000004c4b t _Z6deinitv.cold
less:0000000000024bd0 T _Z6getchrv
less:0000000000006965 t _Z6getchrv.cold
less:000000000001ce40 T _Z6getnumPPcS_Pi
less:00000000000061ae t _Z6getnumPPcS_Pi.cold
less:000000000001b640 T _Z6gomarki
less:0000000000005fc8 t _Z6gomarki.cold
less:000000000001efe0 T _Z6ierrorPcP4parg
less:0000000000006368 t _Z6ierrorPcP4parg.cold
less:000000000000e5d0 T _Z6in_mcav
less:000000000001eb10 T _Z6inttoaiPc
less:0000000000014570 T _Z6is_dirPc
less:0000000000015eb0 T _Z6nifilev
less:0000000000016040 T _Z6openedPv
less:000000000001b8c0 T _Z6opt__OiPc
less:0000000000005ff2 t _Z6opt__OiPc.cold
less:000000000001ba30 T _Z6opt__PiPc
less:000000000000601c t _Z6opt__PiPc.cold
less:000000000001b920 T _Z6opt__TiPc
less:0000000000006007 t _Z6opt__TiPc.cold
less:000000000001c050 T _Z6opt__ViPc
less:00000000000060c4 t _Z6opt__ViPc.cold
less:000000000000eae0 T _Z6peekccv
less:0000000000005260 t _Z6peekccv.cold
less:000000000001e990 T _Z6postoalPc
less:000000000000b750 T _Z6prcharm
less:000000000001e790 T _Z6putchri
less:00000000000062c0 t _Z6putchri.cold
less:000000000001e930 T _Z6putstrPKc
less:00000000000062ea t _Z6putstrPKc.cold
less:0000000000023230 T _Z6searchiPci
less:00000000000067ef t _Z6searchiPci.cold
less:000000000000b090 T _Z6setfmtPcPS_PiS_
less:0000000000006de0 T _Z6skipspPc
less:000000000001a9a0 T _Z6unmarkPv
less:00000000000086e0 T _Z7at_exitv
less:0000000000004bcd t _Z7at_exitv.cold
less:000000000001b570 T _Z7badmarki
less:0000000000005f9e t _Z7badmarki.cold
less:0000000000009950 T _Z7ch_initii
less:0000000000004d57 t _Z7ch_initii.cold
less:000000000000a170 T _Z7ch_seekl
less:0000000000004d99 t _Z7ch_seekl.cold
less:00000000000092f0 T _Z7ch_tellv
less:000000000001aac0 T _Z7clrmarki
less:0000000000005eef t _Z7clrmarki.cold
less:000000000000d820 T _Z7cmd_intPl
less:0000000000005095 t _Z7cmd_intPl.cold
less:0000000000006fa0 T _Z7ecallocij
less:0000000000004a15 t _Z7ecallocij.cold
less:00000000000140b0 T _Z7fexpandPc
less:000000000000592a t _Z7fexpandPc.cold
less:000000000001ddf0 T _Z7findopti
less:0000000000024670 T _Z7findtagPc
less:00000000000068ce t _Z7findtagPc.cold
less:0000000000015c50 T _Z7forwardiii
less:0000000000005b11 t _Z7forwardiii.cold
less:0000000000015fc0 T _Z7get_posPvP6scrpos
less:000000000001e350 T _Z7intreadv
less:00000000000124b0 T _Z7lesskeyPci
less:000000000000563b t _Z7lesskeyPci.cold
less:0000000000012040 T _Z7lgetenvPc
less:00000000000055eb t _Z7lgetenvPc.cold
less:000000000001e680 T _Z7lstrtoiPcPS_
less:000000000001a5e0 T _Z7lsystemPcS_
less:0000000000005ec5 t _Z7lsystemPcS_.cold
less:000000000001b5c0 T _Z7markposi
less:0000000000005fb3 t _Z7markposi.cold
less:0000000000023a00 T _Z7nexttagi
less:00000000000195f0 T _Z7pappendil
less:0000000000005de3 t _Z7pappendil.cold
less:000000000001a910 T _Z7posmarkl
less:0000000000023ae0 T _Z7prevtagi
less:0000000000017670 T _Z7prewindv
less:0000000000017240 T _Z7repaintv
less:0000000000005be7 t _Z7repaintv.cold
less:0000000000017d10 T _Z7rrshiftv
less:0000000000005cb9 t _Z7rrshiftv.cold
less:00000000000076d0 T _Z7scrsizev
less:0000000000004a93 t _Z7scrsizev.cold
less:000000000001af10 T _Z7setmarkii
less:0000000000005f35 t _Z7setmarkii.cold
less:0000000000006e40 T _Z7sprefixPcS_i
less:000000000000ea10 T _Z7ungetccm
less:0000000000005236 t _Z7ungetccm.cold
less:000000000000ea70 T _Z7ungetscPc
less:000000000000524b t _Z7ungetscPc.cold
less:000000000000a760 T _Z7utf_leni
less:0000000000008470 T _Z8add_linev
less:0000000000004b4f t _Z8add_linev.cold
less:0000000000019ce0 T _Z8add_lnumll
less:0000000000008d70 T _Z8at_enteri
less:0000000000004caf t _Z8at_enteri.cold
less:0000000000015bc0 T _Z8backwardiii
less:0000000000005afc t _Z8backwardiii.cold
less:00000000000146e0 T _Z8bad_filePc
less:0000000000005985 t _Z8bad_filePc.cold
less:0000000000014290 T _Z8bin_filei
less:000000000000593f t _Z8bin_filei.cold
less:0000000000012ae0 T _Z8cat_filev
less:00000000000056b9 t _Z8cat_filev.cold
less:0000000000009880 T _Z8ch_closev
less:0000000000004d42 t _Z8ch_closev.cold
less:00000000000095a0 T _Z8ch_flushv
less:0000000000004d18 t _Z8ch_flushv.cold
less:000000000000d640 T _Z8cmd_chari
less:0000000000005080 t _Z8cmd_chari.cold
less:000000000000ff40 T _Z8commandsv
less:000000000000543f t _Z8commandsv.cold
less:000000000001a2a0 T _Z8currlinei
less:0000000000005e86 t _Z8currlinei.cold
less:0000000000023b90 T _Z8curr_tagv
less:00000000000110c0 T _Z8cvt_textPcS_PiS0_i
less:0000000000005494 t _Z8cvt_textPcS_PiS0_i.cold
less:0000000000012110 T _Z8editcharii
less:0000000000005600 t _Z8editcharii.cold
less:0000000000014610 T _Z8filesizei
less:0000000000019e20 T _Z8find_posl
less:0000000000005e37 t _Z8find_posl.cold
less:0000000000007cf0 T _Z8get_termv
less:0000000000004b26 t _Z8get_termv.cold
less:000000000001e380 T _Z8get_timev
less:0000000000014050 T _Z8homefilePc
less:0000000000005915 t _Z8homefilePc.cold
less:0000000000016e80 T _Z8jump_locli
less:0000000000005bbd t _Z8jump_locli.cold
less:000000000001b0d0 T _Z8lastmarkv
less:0000000000005f5f t _Z8lastmarkv.cold
less:000000000001f860 T _Z8onscreenl
less:00000000000186c0 T _Z8plinenuml
less:0000000000005d26 t _Z8plinenuml.cold
less:000000000001fb60 T _Z8pos_initv
less:00000000000063fb t _Z8pos_initv.cold
less:000000000001f6a0 T _Z8positioni
less:0000000000023790 T _Z8psignalsv
less:000000000000685b t _Z8psignalsv.cold
less:000000000001e830 T _Z8put_linev
less:00000000000062d5 t _Z8put_linev.cold
less:0000000000007160 T _Z8raw_modei
less:0000000000004a54 t _Z8raw_modei.cold
less:00000000000093c0 T _Z8seekablei
less:0000000000016000 T _Z8set_openPv
less:0000000000008f20 T _Z9at_switchi
less:0000000000004cd9 t _Z9at_switchi.cold
less:0000000000016af0 T _Z9back_linel
less:0000000000005b8f t _Z9back_linel.cold
less:0000000000009270 T _Z9ch_lengthv
less:00000000000238f0 T _Z9cleantagsv
less:0000000000008e90 T _Z9clear_botv
less:0000000000004cc4 t _Z9clear_botv.cold
less:000000000000baf0 T _Z9clear_cmdv
less:0000000000008600 T _Z9clear_eolv
less:0000000000004ba3 t _Z9clear_eolv.cold
less:0000000000021610 T _Z9clr_hlistP11hilite_tree
less:000000000000ba80 T _Z9cmd_resetv
less:00000000000164e0 T _Z9del_ifilePv
less:0000000000005b3b t _Z9del_ifilePv.cold
less:0000000000013770 T _Z9edit_lastv
less:00000000000057de t _Z9edit_lastv.cold
less:0000000000013a90 T _Z9edit_listPc
less:0000000000005877 t _Z9edit_listPc.cold
less:00000000000135f0 T _Z9edit_nexti
less:000000000000578a t _Z9edit_nexti.cold
less:0000000000013650 T _Z9edit_previ
less:000000000000579f t _Z9edit_previ.cold
less:0000000000015350 T _Z9fcompletePc
less:0000000000005a50 t _Z9fcompletePc.cold
less:0000000000016750 T _Z9forw_linel
less:0000000000005b7a t _Z9forw_linel.cold
less:00000000000166d0 T _Z9get_ifilePcPv
less:0000000000005b65 t _Z9get_ifilePcPv.cold
less:0000000000015f40 T _Z9get_indexPv
less:000000000000a990 T _Z9get_wcharPKc
less:0000000000008530 T _Z9goto_linei
less:0000000000004b79 t _Z9goto_linei.cold
less:00000000000126d0 T _Z9init_cmdsv
less:0000000000005665 t _Z9init_cmdsv.cold
less:0000000000017560 T _Z9init_linev
less:0000000000005c50 t _Z9init_linev.cold
less:000000000001acd0 T _Z9init_markv
less:0000000000011420 T _Z9isnullenvPc
less:0000000000017130 T _Z9jump_backl
less:0000000000005bd2 t _Z9jump_backl.cold
less:00000000000172e0 T _Z9jump_forwv
less:0000000000005bfc t _Z9jump_forwv.cold
less:00000000000084d0 T _Z9line_leftv
less:0000000000004b64 t _Z9line_leftv.cold
less:0000000000014500 T _Z9lrealpathPc
less:0000000000005970 t _Z9lrealpathPc.cold
less:000000000001e600 T _Z9lstrtoposPcPS_
less:000000000001d030 T _Z9nopendoptv
less:00000000000061d8 t _Z9nopendoptv.cold
less:0000000000017830 T _Z9null_linev
less:000000000001bcf0 T _Z9opt_queryiPc
less:0000000000006046 t _Z9opt_queryiPc.cold
less:000000000001bbb0 T _Z9opt_quoteiPc
less:0000000000006031 t _Z9opt_quoteiPc.cold
less:000000000001c5b0 T _Z9opt_shiftiPc
less:000000000000612d t _Z9opt_shiftiPc.cold
less:0000000000019140 T _Z9pflushmbcv
less:0000000000005db9 t _Z9pflushmbcv.cold
less:000000000001a380 T _Z9pipe_dataPcll
less:0000000000005e9b t _Z9pipe_dataPcll.cold
less:000000000001a520 T _Z9pipe_markiPc
less:0000000000005eb0 t _Z9pipe_markiPc.cold
less:000000000001f810 T _Z9pos_clearv
less:0000000000020b90 T _Z9pr_expandPKci
less:000000000000659a t _Z9pr_expandPKci.cold
less:0000000000020eb0 T _Z9pr_stringv
less:00000000000065d9 t _Z9pr_stringv.cold
less:000000000000b8b0 T _Z9prutfcharm
less:000000000000ab40 T _Z9put_wcharPPcm
less:000000000000bb40 T _Z9set_mlistPvi
less:00000000000183f0 T _Z9skip_ansiPPcPKc
less:0000000000005cfc t _Z9skip_ansiPPcPKc.cold
less:000000000000ac90 T _Z9step_charPPciPKc
less:0000000000015f80 T _Z9store_posPvP6scrpos
less:0000000000024a20 T _Z9tagsearchv
less:0000000000006926 t _Z9tagsearchv.cold
less:0000000000019bc0 t _ZL10abort_longv
less:0000000000005e0d t _ZL10abort_longv.cold
less:0000000000021ad0 t _ZL10add_hiliteP11hilite_treeP6hilite
less:00000000000066c0 t _ZL10add_hiliteP11hilite_treeP6hilite.cold
less:00000000000202e0 t _ZL10ap_linenuml
less:0000000000006464 t _ZL10ap_linenuml.cold
less:000000000003e500 d _ZL10B__optname
less:00000000000097d0 t _ZL10ch_delbufsv
less:0000000000012d00 t _ZL10close_filev
less:00000000000056f8 t _ZL10close_filev.cold
less:0000000000012cb0 t _ZL10close_pipeP8_IO_FILE
less:00000000000056e3 t _ZL10close_pipeP8_IO_FILE.cold
less:0000000000011ef0 t _ZL10cmd_decodeP9tablelistPcPS1_
less:00000000000055ac t _ZL10cmd_decodeP9tablelistPcPS1_.cold
less:000000000000ca80 t _ZL10cmd_deletev
less:0000000000004f95 t _ZL10cmd_deletev.cold
less:000000000000c5c0 t _ZL10cmd_lshiftv
less:0000000000004f2c t _ZL10cmd_lshiftv.cold
less:000000000003f618 b _ZL10cmd_offset
less:000000000000c3a0 t _ZL10cmd_rshiftv
less:0000000000004f02 t _ZL10cmd_rshiftv.cold
less:0000000000011d80 t _ZL10cmd_searchPcS_S_PS_
less:0000000000005597 t _ZL10cmd_searchPcS_S_PS_.cold
less:000000000000cdb0 t _ZL10cmd_updowni
less:0000000000004ffe t _ZL10cmd_updowni.cold
less:000000000000c7f0 t _ZL10cmd_werasev
less:0000000000004f56 t _ZL10cmd_werasev.cold
less:0000000000024850 t _ZL10ctagsearchv
less:000000000000690d t _ZL10ctagsearchv.cold
less:000000000003f5d8 b _ZL10curr_mlist
less:00000000000136b0 t _ZL10edit_inextPvi
less:00000000000057b4 t _ZL10edit_inextPvi.cold
less:0000000000013710 t _ZL10edit_iprevPvi
less:00000000000057c9 t _ZL10edit_iprevPvi.cold
less:0000000000013530 t _ZL10edit_istepPvii
less:0000000000005775 t _ZL10edit_istepPvii.cold
less:0000000000016290 t _ZL10find_ifilePc
less:0000000000005b26 t _ZL10find_ifilePc.cold
less:000000000003e4b0 d _ZL10F__optname
less:000000000000e860 t _ZL10getcc_replPKcS0_PFmvEPFvmE
less:0000000000005209 t _ZL10getcc_replPKcS0_PFmvEPFvmE.cold
less:0000000000024720 t _ZL10gtagsearchv
less:00000000000068e3 t _ZL10gtagsearchv.cold
less:0000000000015da0 t _ZL10incr_indexP5ifilei
less:000000000000d080 t _ZL10init_complv
less:000000000000502c t _ZL10init_complv.cold
less:000000000001ec40 t _ZL10iprint_inti
less:0000000000006314 t _ZL10iprint_inti.cold
less:000000000001de70 t _ZL10is_optcharc
less:000000000003e460 d _ZL10J__optname
less:000000000003e440 d _ZL10K__optname
less:0000000000016570 t _ZL10link_ifileP5ifileS0_
less:000000000003e430 d _ZL10L__optname
less:0000000000023ce0 t _ZL10maketagentPcS_lS_i
less:0000000000006885 t _ZL10maketagentPcS_lS_i.cold
less:000000000000f750 t _ZL10mca_searchv
less:000000000000538b t _ZL10mca_searchv.cold
less:000000000000bd00 t _ZL10mlist_sizeP5mlist
less:0000000000027ac0 r _ZL10more_proto
less:000000000000d1a0 t _ZL10next_compliPc
less:0000000000005041 t _ZL10next_compliPc.cold
less:000000000003e3f0 d _ZL10O__optname
less:000000000003fe60 b _ZL10optgetname
less:000000000004016c b _ZL10overstrike
less:000000000003e3d0 d _ZL10P__optname
less:000000000003f628 b _ZL10prompt_col
less:000000000003e3c0 d _ZL10q2_optname
less:0000000000042b60 b _ZL10read_label
less:0000000000040174 b _ZL10right_curr
less:000000000003f418 b _ZL10sc_addline
less:0000000000022070 t _ZL10search_posi
less:0000000000006718 t _ZL10search_posi.cold
less:000000000003e380 d _ZL10S__optname
less:0000000000018bb0 t _ZL10store_charmiPcl
less:0000000000005d65 t _ZL10store_charmiPcl.cold
less:0000000000043060 b _ZL10table_size
less:000000000003e360 d _ZL10T__optname
less:00000000000388a0 d _ZL10ubin_array
less:000000000003e340 d _ZL10V__optname
less:0000000000038180 d _ZL10wide_array
less:000000000003e310 d _ZL10X__optname
less:00000000000185a0 t _ZL11add_linebufcci
less:0000000000017870 t _ZL11attr_ewidthi
less:0000000000005c65 t _ZL11attr_ewidthi.cold
less:00000000000178f0 t _ZL11attr_swidthi
less:0000000000005c7a t _ZL11attr_swidthi.cold
less:000000000003f5c8 b _ZL11cmd_mbc_buf
less:000000000000c260 t _ZL11cmd_repaintPKc
less:0000000000004eed t _ZL11cmd_repaintPKc.cold
less:000000000000cae0 t _ZL11cmd_wdeletev
less:0000000000004faa t _ZL11cmd_wdeletev.cold
less:00000000000438a0 b _ZL11filter_info
less:000000000001c9e0 t _ZL11flip_tripleii
less:00000000000211e0 t _ZL11get_cvt_opsv
less:0000000000043938 b _ZL11hide_hilite
less:0000000000022200 t _ZL11hilite_linelPciPiS_S_i
less:000000000000672d t _ZL11hilite_linelPciPiS_S_i.cold
less:0000000000043924 b _ZL11is_caseless
less:000000000000adb0 t _ZL11is_in_tablemP17wchar_range_table
less:000000000001ed80 t _ZL11less_printfPcP4parg
less:000000000000633e t _ZL11less_printfPcP4parg.cold
less:0000000000040134 b _ZL11mbc_buf_len
less:0000000000012320 t _ZL11new_lesskeyPcii
less:0000000000005626 t _ZL11new_lesskeyPcii.cold
less:0000000000011af0 t _ZL11old_lesskeyPci
less:0000000000005558 t _ZL11old_lesskeyPci.cold
less:0000000000043928 b _ZL11prep_endpos
less:000000000003fe50 b _ZL11save_hshift
less:000000000003f388 b _ZL11sc_e_keypad
less:000000000003f390 b _ZL11sc_s_keypad
less:00000000000438c0 b _ZL11search_info
less:000000000003fe88 b _ZL11search_type
less:000000000000b510 t _ZL11set_charsetv
less:0000000000004e45 t _ZL11set_charsetv.cold
less:0000000000017720 t _ZL11set_linebuficc
less:0000000000021f50 t _ZL11set_patternP12pattern_infoPci
less:0000000000006703 t _ZL11set_patternP12pattern_infoPci.cold
less:000000000003f600 b _ZL11tk_original
less:0000000000023720 t _ZL11u_interrupti
less:0000000000006846 t _ZL11u_interrupti.cold
less:000000000000de10 t _ZL11write_mlistP5mlistP8_IO_FILE
less:0000000000005101 t _ZL11write_mlistP5mlistP8_IO_FILE.cold
less:000000000000e0b0 t _ZL12addhist_initPvP5mlistPc
less:0000000000005140 t _ZL12addhist_initPvP5mlistPc.cold
less:0000000000038038 d _ZL12ch_ungotchar
less:000000000000d230 t _ZL12cmd_completei
less:0000000000005056 t _ZL12cmd_completei.cold
less:0000000000024790 t _ZL12curtag_matchPKcl
less:00000000000068f8 t _ZL12curtag_matchPKcl.cold
less:000000000000ced0 t _ZL12delimit_wordv
less:0000000000005017 t _ZL12delimit_wordv.cold
less:0000000000023100 t _ZL12hist_patterni
less:00000000000067c5 t _ZL12hist_patterni.cold
less:0000000000009450 t _ZL12init_hashtblv
less:0000000000020f50 t _ZL12init_patternP12pattern_info
less:0000000000040164 b _ZL12is_null_line
less:000000000000ecf0 t _ZL12make_displayv
less:000000000000529f t _ZL12make_displayv.cold
less:000000000000f4f0 t _ZL12mca_opt_chari
less:0000000000005376 t _ZL12mca_opt_chari.cold
less:000000000000eb90 t _ZL12multi_searchPcii
less:000000000000528a t _ZL12multi_searchPcii.cold
less:00000000000215a0 t _ZL12prev_patternP12pattern_info
less:0000000000006618 t _ZL12prev_patternP12pattern_info.cold
less:000000000000dc60 t _ZL12read_cmdhistPFvPvP5mlistPcES_ii
less:00000000000050d7 t _ZL12read_cmdhistPFvPvP5mlistPcES_ii.cold
less:0000000000040170 b _ZL12right_column
less:000000000003fe4c b _ZL12save_bs_mode
less:000000000003f398 b _ZL12sc_backspace
less:000000000003f3f0 b _ZL12sc_eol_clear
less:000000000003f3e8 b _ZL12sc_eos_clear
less:0000000000022680 t _ZL12search_rangelliiiPlS_
less:000000000000676f t _ZL12search_rangelliiiPlS_.cold
less:0000000000018fc0 t _ZL12store_prcharml
less:0000000000005d8f t _ZL12store_prcharml.cold
less:0000000000016450 t _ZL12unlink_ifileP5ifile
less:000000000003a31c d _ZL12updown_match
less:00000000000116d0 t _ZL13add_cmd_tablePP9tablelistPci
less:0000000000011960 t _ZL13add_var_tablePP9tablelistPci
less:000000000000552e t _ZL13add_var_tablePP9tablelistPci.cold
less:000000000000f000 t _ZL13clear_buffersv
less:00000000000052f3 t _ZL13clear_buffersv.cold
less:0000000000008660 t _ZL13clear_eol_botv
less:0000000000004bb8 t _ZL13clear_eol_botv.cold
less:0000000000021730 t _ZL13clear_patternP12pattern_info
less:000000000000662d t _ZL13clear_patternP12pattern_info.cold
less:000000000000c060 t _ZL13cmd_step_leftPPcPiS1_
less:0000000000004eae t _ZL13cmd_step_leftPPcPiS1_.cold
less:00000000000389a0 d _ZL13compose_array
less:000000000003f5d0 b _ZL13curr_cmdflags
less:00000000000438e0 b _ZL13filter_anchor
less:00000000000190a0 t _ZL13flush_mbc_bufl
less:0000000000005da4 t _ZL13flush_mbc_bufl.cold
less:0000000000043900 b _ZL13hilite_anchor
less:0000000000022fd0 t _ZL13hilite_screenv
less:000000000000679b t _ZL13hilite_screenv.cold
less:000000000000d910 t _ZL13histfile_namev
less:00000000000050aa t _ZL13histfile_namev.cold
less:0000000000021a70 t _ZL13hlist_getnodeP11hilite_tree
less:00000000000066ab t _ZL13hlist_getnodeP11hilite_tree.cold
less:0000000000009140 t _ZL13ignore_resultx
less:000000000001a350 t _ZL13ignore_resultx
less:0000000000007090 t _ZL13inc_costcounti
less:000000000003f610 b _ZL13in_completion
less:000000000003e530 d _ZL13intr_to_abort
less:000000000000e620 t _ZL13is_erase_chari
less:000000000000cd30 t _ZL13make_tempnamePc
less:0000000000004fe9 t _ZL13make_tempnamePc.cold
less:0000000000040130 b _ZL13mbc_buf_index
less:000000000003e2b0 d _ZL13pound_optname
less:0000000000043930 b _ZL13prep_startpos
less:000000000003e2c0 d _ZL13query_optname
less:000000000003e2e0 d _ZL13quote_optname
less:000000000000da20 t _ZL13read_cmdhist2PFvPvP5mlistPcES_ii
less:00000000000050bf t _ZL13read_cmdhist2PFvPvP5mlistPcES_ii.cold
less:000000000003f378 b _ZL13sc_e_mousecap
less:000000000003f410 b _ZL13sc_lower_left
less:000000000003f380 b _ZL13sc_s_mousecap
less:0000000000014240 t _ZL13seek_filesizei
less:0000000000038030 d _ZL13termcap_debug
less:000000000003e2d0 d _ZL13tilde_optname
less:000000000000c1d0 t _ZL14cmd_step_rightPPcPiS1_
less:0000000000004ed8 t _ZL14cmd_step_rightPPcPiS1_.cold
less:0000000000021db0 t _ZL14create_hilitesliiPi
less:00000000000066d5 t _ZL14create_hilitesliiPi.cold
less:0000000000040148 b _ZL14end_ansi_chars
less:0000000000017970 t _ZL14expand_linebufv
less:000000000003e280 d _ZL14follow_optname
less:000000000001ece0 t _ZL14iprint_linenuml
less:0000000000006329 t _ZL14iprint_linenuml.cold
less:000000000003e2a0 d _ZL14keypad_optname
less:000000000001b020 t _ZL14mark_get_ifileP4mark
less:0000000000005f4a t _ZL14mark_get_ifileP4mark.cold
less:000000000001ab40 t _ZL14mark_set_ifileP4markPv
less:000000000000f110 t _ZL14mca_opt_togglev
less:000000000000532a t _ZL14mca_opt_togglev.cold
less:0000000000040140 b _ZL14mid_ansi_chars
less:00000000000113d0 t _ZL14mouse_wheel_upv
less:000000000003e290 d _ZL14oldbot_optname
less:000000000003f3a0 b _ZL14sc_visual_bell
less:0000000000018640 t _ZL15add_attr_normalv
less:000000000003f5c4 b _ZL15cmd_mbc_buf_len
less:000000000000bf40 t _ZL15cmd_step_commonPcmiPiS0_
less:0000000000004e99 t _ZL15cmd_step_commonPcmiPiS0_.cold
less:0000000000018460 t _ZL15in_ansi_esc_seqv
less:0000000000005d11 t _ZL15in_ansi_esc_seqv.cold
less:000000000000e680 t _ZL15is_newline_chari
less:0000000000040168 b _ZL15last_overstrike
less:000000000003fea0 b _ZL15list_var_tables
less:0000000000019c30 t _ZL15longloopmessagev
less:0000000000005e22 t _ZL15longloopmessagev.cold
less:000000000000f980 t _ZL15mca_search_chari
less:00000000000053cb t _ZL15mca_search_chari.cold
less:000000000003e260 d _ZL15rscroll_optname
less:0000000000011860 t _ZL15x11mouse_actionv
less:0000000000005519 t _ZL15x11mouse_actionv.cold
less:000000000001f280 t _ZL16compile_pattern2PciPP17re_pattern_bufferi
less:0000000000006392 t _ZL16compile_pattern2PciPP17re_pattern_bufferi.cold
less:0000000000011600 t _ZL16expand_cmd_tableP9tablelist
less:00000000000054c5 t _ZL16expand_cmd_tableP9tablelist.cold
less:0000000000024ca0 t _ZL16gnu_ptrace_closev
less:00000000000219a0 t _ZL16hlist_getstorageP11hilite_tree
less:0000000000006696 t _ZL16hlist_getstorageP11hilite_tree.cold
less:0000000000021160 t _ZL16is_hilited_rangell
less:0000000000043920 b _ZL16is_ucase_pattern
less:000000000003fea8 b _ZL16list_ecmd_tables
less:000000000003feb0 b _ZL16list_fcmd_tables
less:00000000000117f0 t _ZL16mouse_button_relii
less:0000000000005504 t _ZL16mouse_button_relii.cold
less:000000000003e240 d _ZL16mousecap_optname
less:0000000000011380 t _ZL16mouse_wheel_downv
less:0000000000011c30 t _ZL16x116mouse_actionv
less:0000000000005582 t _ZL16x116mouse_actionv.cold
less:000000000003f5c0 b _ZL17cmd_mbc_buf_index
less:000000000000e750 t _ZL17getcc_end_commandv
less:00000000000051df t _ZL17getcc_end_commandv.cold
less:000000000000bcb0 t _ZL17histfile_modifiedv
less:00000000000212f0 t _ZL17hlist_rotate_leftP11hilite_treeP11hilite_node
less:000000000000dcd0 t _ZL17make_file_privateP8_IO_FILE
less:0000000000021270 t _ZL18hlist_rotate_rightP11hilite_treeP11hilite_node
less:000000000003fe98 b _ZL18list_sysvar_tables
less:000000000000f240 t _ZL18mca_opt_first_chari
less:000000000000534c t _ZL18mca_opt_first_chari.cold
less:000000000003e250 d _ZL18nohistdups_optname
less:000000000000dd80 t _ZL18write_mlist_headerP5mlistP8_IO_FILE
less:00000000000050ec t _ZL18write_mlist_headerP5mlistP8_IO_FILE.cold
less:00000000000114d0 t _ZL19expand_special_keysPci
less:00000000000054b0 t _ZL19expand_special_keysPci.cold
less:000000000003e220 d _ZL19perma_marks_optname
less:000000000003e230 d _ZL19wheel_lines_optname
less:000000000000f330 t _ZL21mca_opt_nonfirst_chari
less:0000000000005361 t _ZL21mca_opt_nonfirst_chari.cold
less:000000000003e270 d _ZL21use_backslash_optname
less:000000000003f620 b _ZL2cp
less:0000000000043098 b _ZL2mp
less:000000000003e568 d _ZL2ob
less:000000000003fe8c b _ZL3mca
less:0000000000040188 b _ZL4attr
less:00000000000087d0 t _ZL4beepv
less:0000000000004be2 t _ZL4beepv.cold
less:000000000001ffd0 t _ZL4condci
less:000000000000643a t _ZL4condci.cold
less:0000000000007be0 t _ZL4costPc
less:0000000000004afc t _ZL4costPc.cold
less:000000000004017c b _ZL4curr
less:0000000000011470 t _ZL4gintPPc
less:0000000000042c60 b _ZL4obuf
less:00000000000401c0 b _ZL4pool
less:0000000000023660 t _ZL4stopi
less:000000000000681c t _ZL4stopi.cold
less:0000000000018a70 t _ZL5backcv
less:0000000000005d50 t _ZL5backcv.cold
less:000000000001a8b0 t _ZL5cmarkP4markPvli
less:00000000000421c0 b _ZL5marks
less:000000000001f160 t _ZL5matchPciS_iPS_S0_
less:0000000000040158 b _ZL5pendc
less:000000000003fe48 b _ZL5pipec
less:00000000000401b0 b _ZL5spare
less:0000000000043068 b _ZL5table
less:000000000004394c b _ZL5total
less:000000000003fe40 b _ZL5ungot
less:000000000003d560 d _ZL6anchor
less:0000000000042120 b _ZL6anchor
less:0000000000020370 t _ZL6ap_inti
less:0000000000006479 t _ZL6ap_inti.cold
less:0000000000020400 t _ZL6ap_posl
less:000000000000648e t _ZL6ap_posl.cold
less:000000000001fe00 t _ZL6ap_strPc
less:000000000003f4a8 b _ZL6binfmt
less:000000000003f640 b _ZL6cmdbuf
less:0000000000040178 b _ZL6column
less:0000000000040180 b _ZL6cshift
less:0000000000043948 b _ZL6curseq
less:0000000000043940 b _ZL6curtag
less:000000000000e7d0 t _ZL6getccuv
less:00000000000051f4 t _ZL6getccuv.cold
less:000000000003fee8 b _ZL6ifiles
less:000000000001e140 t _ZL6muldivlll
less:000000000003fe80 b _ZL6number
less:000000000003d5e0 d _ZL6option
less:000000000000edc0 t _ZL6promptv
less:00000000000052b4 t _ZL6promptv.cold
less:0000000000017ef0 t _ZL6pshifti
less:0000000000005cce t _ZL6pshifti.cold
less:00000000000188d0 t _ZL6pwidthmim
less:0000000000005d3b t _ZL6pwidthmim.cold
less:0000000000014410 t _ZL6readfdP8_IO_FILE
less:0000000000005957 t _ZL6readfdP8_IO_FILE.cold
less:0000000000007a80 t _ZL6tmodesPcS_PS_S0_S_S_S0_
less:0000000000004ad2 t _ZL6tmodesPcS_PS_S0_S_S_S0_.cold
less:000000000001fe80 t _ZL7ap_charc
less:0000000000019c80 t _ZL7calcgapP12linenum_info
less:000000000003f4c0 b _ZL7chardef
less:0000000000007c50 t _ZL7cheaperPcS_S_
less:0000000000004b11 t _ZL7cheaperPcS_S_.cold
less:000000000003f62c b _ZL7cmd_col
less:000000000003fe70 b _ZL7curropt
less:0000000000013f60 t _ZL7dirfilePcS_
less:0000000000005900 t _ZL7dirfilePcS_.cold
less:0000000000027b80 r _ZL7e_proto
less:000000000001b380 t _ZL7getmarki
less:0000000000005f89 t _ZL7getmarki.cold
less:0000000000027b20 r _ZL7h_proto
less:000000000000b370 t _ZL7ilocalev
less:0000000000040190 b _ZL7linebuf
less:000000000003f614 b _ZL7literal
less:0000000000040160 b _ZL7lmargin
less:0000000000019fd0 t _ZL7longishv
less:0000000000005e4c t _ZL7longishv.cold
less:0000000000038034 d _ZL7maxbufs
less:0000000000040138 b _ZL7mbc_buf
less:0000000000040128 b _ZL7mbc_pos
less:00000000000430a0 b _ZL7message
less:000000000000bbe0 t _ZL7ml_linkP5mlistS0_
less:0000000000027c60 r _ZL7m_proto
less:0000000000027be0 r _ZL7M_proto
less:000000000003fe64 b _ZL7optflag
less:0000000000042a90 b _ZL7pendopt
less:0000000000040150 b _ZL7pendpos
less:000000000003f3c0 b _ZL7sc_b_in
less:000000000003f420 b _ZL7sc_home
less:000000000003f370 b _ZL7sc_init
less:000000000003f400 b _ZL7sc_move
less:000000000003f3e0 b _ZL7sc_s_in
less:000000000003f3d0 b _ZL7sc_u_in
less:000000000000eb40 t _ZL7set_mcai
less:0000000000005275 t _ZL7set_mcai.cold
less:0000000000027cc0 r _ZL7s_proto
less:000000000003e590 d _ZL7taglist
less:000000000003f608 b _ZL7tk_text
less:0000000000027b00 r _ZL7w_proto
less:000000000001fef0 t _ZL8ap_questv
less:000000000003f360 b _ZL8attrmode
less:00000000000091e0 t _ZL8bufferedl
less:000000000000d3c0 t _ZL8cmd_editi
less:000000000000506b t _ZL8cmd_editi.cold
less:000000000000ef50 t _ZL8cmd_execv
less:00000000000052c9 t _ZL8cmd_execv.cold
less:000000000000c0e0 t _ZL8cmd_homev
less:0000000000004ec3 t _ZL8cmd_homev.cold
less:000000000000cc60 t _ZL8cmd_istrPc
less:0000000000004fd4 t _ZL8cmd_istrPc.cold
less:000000000000c890 t _ZL8cmd_killv
less:0000000000004f6b t _ZL8cmd_killv.cold
less:000000000000c4a0 t _ZL8cmd_leftv
less:0000000000004f17 t _ZL8cmd_leftv.cold
less:000000000003a4e0 d _ZL8cmdtable
less:0000000000015610 t _ZL8eof_bellv
less:0000000000005aa4 t _ZL8eof_bellv.cold
less:000000000000fb90 t _ZL8exec_mcav
less:0000000000005405 t _ZL8exec_mcav.cold
less:0000000000023dc0 t _ZL8findctagPc
less:000000000000689a t _ZL8findctagPc.cold
less:00000000000242f0 t _ZL8findgtagPci
less:00000000000068b6 t _ZL8findgtagPci.cold
less:000000000003fe78 b _ZL8fraction
less:0000000000042100 b _ZL8freelist
less:00000000000240a0 t _ZL8getentryPcPS_S0_S0_
less:000000000001aa10 t _ZL8getumarki
less:0000000000005eda t _ZL8getumarki.cold
less:000000000003f310 b _ZL8hardcopy
less:000000000000b1d0 t _ZL8ichardefPc
less:0000000000004e17 t _ZL8ichardefPc.cold
less:000000000000b3f0 t _ZL8icharsetPci
less:0000000000004e30 t _ZL8icharsetPci.cold
less:0000000000021eb0 t _ZL8is_ucasePc
less:00000000000066ee t _ZL8is_ucasePc.cold
less:0000000000007640 t _ZL8ltgetnumPc
less:0000000000004a7e t _ZL8ltgetnumPc.cold
less:0000000000007840 t _ZL8ltgetstrPcPS_
less:0000000000004aa8 t _ZL8ltgetstrPcPS_.cold
less:000000000000fdf0 t _ZL8mca_chari
less:000000000000542a t _ZL8mca_chari.cold
less:0000000000013f00 t _ZL8metacharc
less:00000000000058eb t _ZL8metacharc.cold
less:0000000000023990 t _ZL8nextgtagv
less:000000000001cc00 t _ZL8nostringPc
less:000000000000616f t _ZL8nostringPc.cold
less:000000000001cd20 t _ZL8opt_descP7loption
less:0000000000023a70 t _ZL8prevgtagv
less:000000000003f3b0 b _ZL8sc_bl_in
less:000000000003f3b8 b _ZL8sc_b_out
less:000000000003f3f8 b _ZL8sc_clear
less:000000000003f3d8 b _ZL8sc_s_out
less:000000000003f3c8 b _ZL8sc_u_out
less:000000000003fe90 b _ZL8shellcmd
less:0000000000014ab0 t _ZL8shellcmdPc
less:00000000000059c6 t _ZL8shellcmdPc.cold
less:000000000001fd60 t _ZL8skipcondPKc
less:00000000000401a0 b _ZL8startime
less:000000000003f430 b _ZL8thisfile
less:000000000003f5e0 b _ZL8tk_tlist
less:000000000003f5f0 b _ZL8tk_trial
less:000000000003e520 d _ZL9a_optname
less:000000000003e510 d _ZL9b_optname
less:000000000003fe58 b _ZL9bottompos
less:0000000000009500 t _ZL9ch_addbufv
less:000000000000efa0 t _ZL9clear_mcav
less:00000000000052de t _ZL9clear_mcav.cold
less:000000000000c710 t _ZL9cmd_erasev
less:0000000000004f41 t _ZL9cmd_erasev.cold
less:000000000000cb60 t _ZL9cmd_icharPci
less:0000000000004fbf t _ZL9cmd_icharPci.cold
less:000000000000c930 t _ZL9cmd_rightv
less:0000000000004f80 t _ZL9cmd_rightv.cold
less:000000000003e4f0 d _ZL9c_optname
less:000000000000e1c0 t _ZL9copy_histPvP5mlistPc
less:0000000000005177 t _ZL9copy_histPvP5mlistPc.cold
less:000000000003e6dc b _ZL9costcount
less:000000000001ff30 t _ZL9curr_bytei
less:0000000000006425 t _ZL9curr_bytei.cold
less:00000000000191c0 t _ZL9do_appendmPcl
less:0000000000005dce t _ZL9do_appendmPcl.cold
less:000000000003e4e0 d _ZL9d_optname
less:000000000003a400 d _ZL9edittable
less:000000000003e4d0 d _ZL9e_optname
less:0000000000038040 d _ZL9fmt_array
less:000000000003e4c0 d _ZL9f_optname
less:000000000000fa50 t _ZL9forw_loopi
less:00000000000053e0 t _ZL9forw_loopi.cold
less:0000000000011760 t _ZL9getcc_intPc
less:00000000000054ef t _ZL9getcc_intPc.cold
less:000000000003e4a0 d _ZL9g_optname
less:000000000003e490 d _ZL9h_optname
less:000000000003f364 b _ZL9init_done
less:000000000003e480 d _ZL9i_optname
less:000000000003e470 d _ZL9j_optname
less:000000000003e450 d _ZL9k_optname
less:00000000000401a8 b _ZL9loopcount
less:00000000000074e0 t _ZL9ltget_envPc
less:0000000000004a69 t _ZL9ltget_envPc.cold
less:0000000000007b50 t _ZL9ltgetflagPc
less:0000000000004ae7 t _ZL9ltgetflagPc.cold
less:0000000000013e80 t _ZL9metacharsv
less:00000000000058d6 t _ZL9metacharsv.cold
less:000000000000bb90 t _ZL9ml_unlinkP5mlist
less:000000000003e420 d _ZL9m_optname
less:0000000000016620 t _ZL9new_ifilePcP5ifile
less:0000000000005b50 t _ZL9new_ifilePcP5ifile.cold
less:000000000003e410 d _ZL9n_optname
less:000000000001cc80 t _ZL9num_errorPcPi
less:0000000000006184 t _ZL9num_errorPcPi.cold
less:0000000000013d00 t _ZL9num_pct_sPc
less:000000000003e400 d _ZL9o_optname
less:000000000003fe68 b _ZL9opt_lower
less:000000000001d0f0 t _ZL9optstringPcPS_S_S_
less:00000000000061fd t _ZL9optstringPcPS_S_S_.cold
less:000000000003e3e0 d _ZL9p_optname
less:0000000000020490 t _ZL9protochariii
less:00000000000064a3 t _ZL9protochariii.cold
less:000000000003e3b0 d _ZL9q_optname
less:000000000003e3a0 d _ZL9r_optname
less:000000000003f3a8 b _ZL9sc_bl_out
less:000000000003f368 b _ZL9sc_deinit
less:000000000003f408 b _ZL9sc_return
less:000000000003e390 d _ZL9s_optname
less:000000000000f060 t _ZL9start_mcaiPKcPvi
less:0000000000005308 t _ZL9start_mcaiPKcPvi.cold
less:0000000000018e70 t _ZL9store_tabil
less:0000000000005d7a t _ZL9store_tabil.cold
less:00000000000236d0 t _ZL9terminatei
less:0000000000006831 t _ZL9terminatei.cold
less:000000000003f5f8 b _ZL9tk_ipoint
less:000000000003e370 d _ZL9t_optname
less:000000000003e350 d _ZL9u_optname
less:000000000003f4a0 b _ZL9utfbinfmt
less:00000000000201f0 t _ZL9wherecharPKcPi
less:000000000000644f t _ZL9wherecharPKcPi.cold
less:000000000003e330 d _ZL9w_optname
less:000000000003e320 d _ZL9x_optname
less:000000000003e300 d _ZL9y_optname
less:000000000003e2f0 d _ZL9z_optname
less:000000000003e588 D ztags
less:000000000003e5b0 d _ZZ10gnu_ptracePcPvE5first
less:000000000003e5ac d _ZZ10gnu_ptracePcPvE6active
less:000000000003f42c b _ZZ11end_logfilevE5tried
less:000000000003f2e0 b _ZZ15special_key_striE4tbuf
less:000000000003a720 d _ZZ4forwiliiiE10first_time
less:000000000003e660 b _ZZ4quitiE11save_status
less:000000000003e550 d _ZZ5errorPcP4pargE18return_to_continue
less:0000000000042b44 b _ZZ5ireadiPhjE17consecutive_nulls
less:0000000000042a48 b _ZZ5proptiE3buf
less:000000000003f480 b _ZZ6prcharmE3buf
less:000000000003a6e0 d _ZZ8bad_filePcE7not_reg
less:000000000003a710 d _ZZ8bad_filePcE8is_a_dir
less:000000000003e6e0 b _ZZ8get_termvE4sbuf
less:000000000003eae0 b _ZZ8get_termvE7termbuf
less:000000000003f314 b _ZZ8raw_modeiE10saved_term
less:000000000003f35c b _ZZ8raw_modeiE7curr_on
less:000000000003f320 b _ZZ8raw_modeiE9save_term
less:000000000003f460 b _ZZ9prutfcharmE3buf
less:0000000000042180 b _ZZL7getmarkiE2sm
less:0000000000042a60 b _ZZL8opt_descP7loptionE3buf
less:000000000003f308 b _ZZL9ltget_envPcE4envs
less:000000000003fed0 b _ZZL9metacharsvE6mchars
